; Function Attrs: mustprogress uwtable
define noundef zeroext i1 @_ZN18OpenImageIO_v2_6_010Filesystem4copyENS_17basic_string_viewIcSt11char_traitsIcEEES4_RNSt7__cxx1112basic_stringIcS3_SaIcEEE(ptr nocapture noundef readonly %from, ptr nocapture noundef readonly %to, ptr noundef nonnull align 8 dereferenceable(32) %err) local_unnamed_addr #5 personality ptr @__gxx_personality_v0 {
entry:
  %ec = alloca %"class.std::error_code", align 8
  %ref.tmp = alloca %"class.std::filesystem::__cxx11::path", align 8
  %ref.tmp1 = alloca %"class.std::filesystem::__cxx11::path", align 8
  %ref.tmp6 = alloca %"class.std::__cxx11::basic_string", align 8
  store i32 0, ptr %ec, align 8
  %_M_cat.i = getelementptr inbounds i8, ptr %ec, i64 8
  %call.i = tail call noundef nonnull align 8 dereferenceable(8) ptr @_ZNSt3_V215system_categoryEv() #35
  store ptr %call.i, ptr %_M_cat.i, align 8
  %0 = load ptr, ptr %from, align 8
  %m_len.i.i = getelementptr inbounds i8, ptr %from, i64 8
  %1 = load i64, ptr %m_len.i.i, align 8
  %add.ptr.i.i = getelementptr inbounds i8, ptr %0, i64 %1
  call void @_ZNSt10filesystem7__cxx114pathC2IPKcS1_EET_S5_NS1_6formatE(ptr noundef nonnull align 8 dereferenceable(40) %ref.tmp, ptr noundef %0, ptr noundef %add.ptr.i.i, i8 noundef zeroext 2)
  %2 = load ptr, ptr %to, align 8
  %m_len.i.i5 = getelementptr inbounds i8, ptr %to, i64 8
  %3 = load i64, ptr %m_len.i.i5, align 8
  %add.ptr.i.i7 = getelementptr inbounds i8, ptr %2, i64 %3
  invoke void @_ZNSt10filesystem7__cxx114pathC2IPKcS1_EET_S5_NS1_6formatE(ptr noundef nonnull align 8 dereferenceable(40) %ref.tmp1, ptr noundef %2, ptr noundef %add.ptr.i.i7, i8 noundef zeroext 2)
          to label %invoke.cont3 unwind label %lpad

invoke.cont3:                                     ; preds = %entry
  invoke void @_ZNSt10filesystem4copyERKNS_7__cxx114pathES3_NS_12copy_optionsERSt10error_code(ptr noundef nonnull align 8 dereferenceable(40) %ref.tmp, ptr noundef nonnull align 8 dereferenceable(40) %ref.tmp1, i16 noundef zeroext 0, ptr noundef nonnull align 8 dereferenceable(16) %ec)
          to label %invoke.cont5 unwind label %lpad4

invoke.cont5:                                     ; preds = %invoke.cont3
  %_M_cmpts.i = getelementptr inbounds i8, ptr %ref.tmp1, i64 32
  %4 = load ptr, ptr %_M_cmpts.i, align 8
  %cmp.not.i.i.i = icmp eq ptr %4, null
  br i1 %cmp.not.i.i.i, label %_ZNSt10filesystem7__cxx114pathD2Ev.exit, label %if.then.i.i.i

if.then.i.i.i:                                    ; preds = %invoke.cont5
  call void @_ZNKSt10filesystem7__cxx114path5_List13_Impl_deleterclEPNS2_5_ImplE(ptr noundef nonnull align 1 dereferenceable(1) %_M_cmpts.i, ptr noundef nonnull %4) #32
  br label %_ZNSt10filesystem7__cxx114pathD2Ev.exit

_ZNSt10filesystem7__cxx114pathD2Ev.exit:          ; preds = %invoke.cont5, %if.then.i.i.i
  store ptr null, ptr %_M_cmpts.i, align 8
  call void @_ZNSt7__cxx1112basic_stringIcSt11char_traitsIcESaIcEED1Ev(ptr noundef nonnull align 8 dereferenceable(32) %ref.tmp1) #32
  %_M_cmpts.i8 = getelementptr inbounds i8, ptr %ref.tmp, i64 32
  %5 = load ptr, ptr %_M_cmpts.i8, align 8
  %cmp.not.i.i.i9 = icmp eq ptr %5, null
  br i1 %cmp.not.i.i.i9, label %_ZNSt10filesystem7__cxx114pathD2Ev.exit11, label %if.then.i.i.i10

if.then.i.i.i10:                                  ; preds = %_ZNSt10filesystem7__cxx114pathD2Ev.exit
  call void @_ZNKSt10filesystem7__cxx114path5_List13_Impl_deleterclEPNS2_5_ImplE(ptr noundef nonnull align 1 dereferenceable(1) %_M_cmpts.i8, ptr noundef nonnull %5) #32
  br label %_ZNSt10filesystem7__cxx114pathD2Ev.exit11

_ZNSt10filesystem7__cxx114pathD2Ev.exit11:        ; preds = %_ZNSt10filesystem7__cxx114pathD2Ev.exit, %if.then.i.i.i10
  store ptr null, ptr %_M_cmpts.i8, align 8
  call void @_ZNSt7__cxx1112basic_stringIcSt11char_traitsIcESaIcEED1Ev(ptr noundef nonnull align 8 dereferenceable(32) %ref.tmp) #32
  %6 = load i32, ptr %ec, align 8
  %cmp.i.not = icmp eq i32 %6, 0
  br i1 %cmp.i.not, label %if.then, label %if.else

if.then:                                          ; preds = %_ZNSt10filesystem7__cxx114pathD2Ev.exit11
  call void @_ZNSt7__cxx1112basic_stringIcSt11char_traitsIcESaIcEE5clearEv(ptr noundef nonnull align 8 dereferenceable(32) %err) #32
  br label %return

lpad:                                             ; preds = %entry
  %7 = landingpad { ptr, i32 }
          cleanup
  br label %ehcleanup

lpad4:                                            ; preds = %invoke.cont3
  %8 = landingpad { ptr, i32 }
          cleanup
  call void @_ZNSt10filesystem7__cxx114pathD2Ev(ptr noundef nonnull align 8 dereferenceable(40) %ref.tmp1) #32
  br label %ehcleanup

ehcleanup:                                        ; preds = %lpad4, %lpad
  %.pn = phi { ptr, i32 } [ %8, %lpad4 ], [ %7, %lpad ]
  call void @_ZNSt10filesystem7__cxx114pathD2Ev(ptr noundef nonnull align 8 dereferenceable(40) %ref.tmp) #32
  resume { ptr, i32 } %.pn

if.else:                                          ; preds = %_ZNSt10filesystem7__cxx114pathD2Ev.exit11
  %9 = load ptr, ptr %_M_cat.i, align 8, !noalias !122
  %vtable.i = load ptr, ptr %9, align 8, !noalias !122
  %vfn.i = getelementptr inbounds i8, ptr %vtable.i, i64 32
  %10 = load ptr, ptr %vfn.i, align 8, !noalias !122
  call void %10(ptr nonnull sret(%"class.std::__cxx11::basic_string") align 8 %ref.tmp6, ptr noundef nonnull align 8 dereferenceable(8) %9, i32 noundef %6)
  %call7 = call noundef nonnull align 8 dereferenceable(32) ptr @_ZNSt7__cxx1112basic_stringIcSt11char_traitsIcESaIcEEaSEOS4_(ptr noundef nonnull align 8 dereferenceable(32) %err, ptr noundef nonnull align 8 dereferenceable(32) %ref.tmp6) #32
  call void @_ZNSt7__cxx1112basic_stringIcSt11char_traitsIcESaIcEED1Ev(ptr noundef nonnull align 8 dereferenceable(32) %ref.tmp6) #32
  br label %return

return:                                           ; preds = %if.else, %if.then
  ret i1 %cmp.i.not
}